; ModuleID = 'source-C-CXX/2/2647.cpp'
source_filename = "source-C-CXX/2/2647.cpp"
target datalayout = "e-m:e-p270:32:32-p271:32:32-p272:64:64-i64:64-f80:128-n8:16:32:64-S128"
target triple = "x86_64-pc-linux-gnu"

%"class.std::ios_base::Init" = type { i8 }
%"class.std::basic_istream" = type { i32 (...)**, i64, %"class.std::basic_ios" }
%"class.std::basic_ios" = type { %"class.std::ios_base", %"class.std::basic_ostream"*, i8, i8, %"class.std::basic_streambuf"*, %"class.std::ctype"*, %"class.std::num_put"*, %"class.std::num_get"* }
%"class.std::ios_base" = type { i32 (...)**, i64, i64, i32, i32, i32, %"struct.std::ios_base::_Callback_list"*, %"struct.std::ios_base::_Words", [8 x %"struct.std::ios_base::_Words"], i32, %"struct.std::ios_base::_Words"*, %"class.std::locale" }
%"struct.std::ios_base::_Callback_list" = type { %"struct.std::ios_base::_Callback_list"*, void (i32, %"class.std::ios_base"*, i32)*, i32, i32 }
%"struct.std::ios_base::_Words" = type { i8*, i64 }
%"class.std::locale" = type { %"class.std::locale::_Impl"* }
%"class.std::locale::_Impl" = type { i32, %"class.std::locale::facet"**, i64, %"class.std::locale::facet"**, i8** }
%"class.std::locale::facet" = type <{ i32 (...)**, i32, [4 x i8] }>
%"class.std::basic_ostream" = type { i32 (...)**, %"class.std::basic_ios" }
%"class.std::basic_streambuf" = type { i32 (...)**, i8*, i8*, i8*, i8*, i8*, i8*, %"class.std::locale" }
%"class.std::ctype" = type <{ %"class.std::locale::facet.base", [4 x i8], %struct.__locale_struct*, i8, [7 x i8], i32*, i32*, i16*, i8, [256 x i8], [256 x i8], i8, [6 x i8] }>
%"class.std::locale::facet.base" = type <{ i32 (...)**, i32 }>
%struct.__locale_struct = type { [13 x %struct.__locale_data*], i16*, i32*, i32*, [13 x i8*] }
%struct.__locale_data = type opaque
%"class.std::num_put" = type { %"class.std::locale::facet.base", [4 x i8] }
%"class.std::num_get" = type { %"class.std::locale::facet.base", [4 x i8] }

@_ZStL8__ioinit = internal global %"class.std::ios_base::Init" zeroinitializer, align 1
@__dso_handle = external hidden global i8
@_ZSt3cin = external global %"class.std::basic_istream", align 8
@_ZSt4cout = external global %"class.std::basic_ostream", align 8
@.str = private unnamed_addr constant [3 x i8] c"no\00", align 1
@.str.1 = private unnamed_addr constant [4 x i8] c"yes\00", align 1
@llvm.global_ctors = appending global [1 x { i32, void ()*, i8* }] [{ i32, void ()*, i8* } { i32 65535, void ()* @_GLOBAL__sub_I_2647.cpp, i8* null }]

declare void @_ZNSt8ios_base4InitC1Ev(%"class.std::ios_base::Init"* nonnull align 1 dereferenceable(1)) unnamed_addr #0

; Function Attrs: nounwind
declare void @_ZNSt8ios_base4InitD1Ev(%"class.std::ios_base::Init"* nonnull align 1 dereferenceable(1)) unnamed_addr #1

; Function Attrs: nofree nounwind
declare i32 @__cxa_atexit(void (i8*)*, i8*, i8*) local_unnamed_addr #2

; Function Attrs: mustprogress norecurse sspstrong uwtable
define dso_local i32 @main() local_unnamed_addr #3 {
  %1 = alloca i32, align 4
  %2 = alloca i32, align 4
  %3 = alloca [2001 x i32], align 16
  %4 = bitcast i32* %1 to i8*
  call void @llvm.lifetime.start.p0i8(i64 4, i8* nonnull %4) #6
  %5 = bitcast i32* %2 to i8*
  call void @llvm.lifetime.start.p0i8(i64 4, i8* nonnull %5) #6
  %6 = bitcast [2001 x i32]* %3 to i8*
  call void @llvm.lifetime.start.p0i8(i64 8004, i8* nonnull %6) #6
  %7 = call nonnull align 8 dereferenceable(16) %"class.std::basic_istream"* @_ZNSirsERi(%"class.std::basic_istream"* nonnull align 8 dereferenceable(16) @_ZSt3cin, i32* nonnull align 4 dereferenceable(4) %1)
  %8 = call nonnull align 8 dereferenceable(16) %"class.std::basic_istream"* @_ZNSirsERi(%"class.std::basic_istream"* nonnull align 8 dereferenceable(16) %7, i32* nonnull align 4 dereferenceable(4) %2)
  %9 = load i32, i32* %1, align 4, !tbaa !5
  %10 = icmp sgt i32 %9, 0
  br i1 %10, label %18, label %91

11:                                               ; preds = %18
  %12 = load i32, i32* %2, align 4
  %13 = icmp sgt i32 %23, 0
  br i1 %13, label %14, label %91

14:                                               ; preds = %11
  %15 = zext i32 %23 to i64
  %16 = zext i32 %23 to i64
  %17 = add nsw i64 %16, -2
  br label %32

18:                                               ; preds = %0, %18
  %19 = phi i64 [ %22, %18 ], [ 0, %0 ]
  %20 = getelementptr inbounds [2001 x i32], [2001 x i32]* %3, i64 0, i64 %19
  %21 = call nonnull align 8 dereferenceable(16) %"class.std::basic_istream"* @_ZNSirsERi(%"class.std::basic_istream"* nonnull align 8 dereferenceable(16) @_ZSt3cin, i32* nonnull align 4 dereferenceable(4) %20)
  %22 = add nuw nsw i64 %19, 1
  %23 = load i32, i32* %1, align 4, !tbaa !5
  %24 = sext i32 %23 to i64
  %25 = icmp slt i64 %22, %24
  br i1 %25, label %18, label %11, !llvm.loop !9

26:                                               ; preds = %58, %63, %32
  %27 = phi i32 [ %35, %32 ], [ %59, %58 ], [ %88, %63 ]
  %28 = add nuw nsw i64 %34, 1
  %29 = icmp eq i64 %37, %16
  br i1 %29, label %30, label %32, !llvm.loop !11

30:                                               ; preds = %26
  %31 = icmp eq i32 %27, 0
  br i1 %31, label %91, label %93

32:                                               ; preds = %14, %26
  %33 = phi i64 [ 0, %14 ], [ %37, %26 ]
  %34 = phi i64 [ 1, %14 ], [ %28, %26 ]
  %35 = phi i32 [ 0, %14 ], [ %27, %26 ]
  %36 = sub i64 %17, %33
  %37 = add nuw nsw i64 %33, 1
  %38 = icmp ult i64 %37, %15
  br i1 %38, label %39, label %26

39:                                               ; preds = %32
  %40 = xor i64 %33, -1
  %41 = add nsw i64 %40, %16
  %42 = getelementptr inbounds [2001 x i32], [2001 x i32]* %3, i64 0, i64 %33
  %43 = load i32, i32* %42, align 4, !tbaa !5
  %44 = and i64 %41, 3
  %45 = icmp eq i64 %44, 0
  br i1 %45, label %58, label %46

46:                                               ; preds = %39, %46
  %47 = phi i64 [ %55, %46 ], [ %34, %39 ]
  %48 = phi i32 [ %54, %46 ], [ %35, %39 ]
  %49 = phi i64 [ %56, %46 ], [ %44, %39 ]
  %50 = getelementptr inbounds [2001 x i32], [2001 x i32]* %3, i64 0, i64 %47
  %51 = load i32, i32* %50, align 4, !tbaa !5
  %52 = add nsw i32 %51, %43
  %53 = icmp eq i32 %52, %12
  %54 = select i1 %53, i32 1, i32 %48
  %55 = add nuw nsw i64 %47, 1
  %56 = add i64 %49, -1
  %57 = icmp eq i64 %56, 0
  br i1 %57, label %58, label %46, !llvm.loop !12

58:                                               ; preds = %46, %39
  %59 = phi i32 [ undef, %39 ], [ %54, %46 ]
  %60 = phi i64 [ %34, %39 ], [ %55, %46 ]
  %61 = phi i32 [ %35, %39 ], [ %54, %46 ]
  %62 = icmp ult i64 %36, 3
  br i1 %62, label %26, label %63

63:                                               ; preds = %58, %63
  %64 = phi i64 [ %89, %63 ], [ %60, %58 ]
  %65 = phi i32 [ %88, %63 ], [ %61, %58 ]
  %66 = getelementptr inbounds [2001 x i32], [2001 x i32]* %3, i64 0, i64 %64
  %67 = load i32, i32* %66, align 4, !tbaa !5
  %68 = add nsw i32 %67, %43
  %69 = icmp eq i32 %68, %12
  %70 = add nuw nsw i64 %64, 1
  %71 = getelementptr inbounds [2001 x i32], [2001 x i32]* %3, i64 0, i64 %70
  %72 = load i32, i32* %71, align 4, !tbaa !5
  %73 = add nsw i32 %72, %43
  %74 = icmp eq i32 %73, %12
  %75 = add nuw nsw i64 %64, 2
  %76 = getelementptr inbounds [2001 x i32], [2001 x i32]* %3, i64 0, i64 %75
  %77 = load i32, i32* %76, align 4, !tbaa !5
  %78 = add nsw i32 %77, %43
  %79 = icmp eq i32 %78, %12
  %80 = add nuw nsw i64 %64, 3
  %81 = getelementptr inbounds [2001 x i32], [2001 x i32]* %3, i64 0, i64 %80
  %82 = load i32, i32* %81, align 4, !tbaa !5
  %83 = add nsw i32 %82, %43
  %84 = icmp eq i32 %83, %12
  %85 = select i1 %84, i1 true, i1 %79
  %86 = select i1 %85, i1 true, i1 %74
  %87 = select i1 %86, i1 true, i1 %69
  %88 = select i1 %87, i32 1, i32 %65
  %89 = add nuw nsw i64 %64, 4
  %90 = icmp eq i64 %89, %16
  br i1 %90, label %26, label %63, !llvm.loop !14

91:                                               ; preds = %0, %11, %30
  %92 = call nonnull align 8 dereferenceable(8) %"class.std::basic_ostream"* @_ZSt16__ostream_insertIcSt11char_traitsIcEERSt13basic_ostreamIT_T0_ES6_PKS3_l(%"class.std::basic_ostream"* nonnull align 8 dereferenceable(8) @_ZSt4cout, i8* nonnull getelementptr inbounds ([3 x i8], [3 x i8]* @.str, i64 0, i64 0), i64 2)
  br label %95

93:                                               ; preds = %30
  %94 = call nonnull align 8 dereferenceable(8) %"class.std::basic_ostream"* @_ZSt16__ostream_insertIcSt11char_traitsIcEERSt13basic_ostreamIT_T0_ES6_PKS3_l(%"class.std::basic_ostream"* nonnull align 8 dereferenceable(8) @_ZSt4cout, i8* nonnull getelementptr inbounds ([4 x i8], [4 x i8]* @.str.1, i64 0, i64 0), i64 3)
  br label %95

95:                                               ; preds = %93, %91
  call void @llvm.lifetime.end.p0i8(i64 8004, i8* nonnull %6) #6
  call void @llvm.lifetime.end.p0i8(i64 4, i8* nonnull %5) #6
  call void @llvm.lifetime.end.p0i8(i64 4, i8* nonnull %4) #6
  ret i32 0
}

; Function Attrs: argmemonly mustprogress nofree nosync nounwind willreturn
declare void @llvm.lifetime.start.p0i8(i64 immarg, i8* nocapture) #4

declare nonnull align 8 dereferenceable(16) %"class.std::basic_istream"* @_ZNSirsERi(%"class.std::basic_istream"* nonnull align 8 dereferenceable(16), i32* nonnull align 4 dereferenceable(4)) local_unnamed_addr #0

; Function Attrs: argmemonly mustprogress nofree nosync nounwind willreturn
declare void @llvm.lifetime.end.p0i8(i64 immarg, i8* nocapture) #4

declare nonnull align 8 dereferenceable(8) %"class.std::basic_ostream"* @_ZSt16__ostream_insertIcSt11char_traitsIcEERSt13basic_ostreamIT_T0_ES6_PKS3_l(%"class.std::basic_ostream"* nonnull align 8 dereferenceable(8), i8*, i64) local_unnamed_addr #0

; Function Attrs: sspstrong uwtable
define internal void @_GLOBAL__sub_I_2647.cpp() #5 section ".text.startup" {
  tail call void @_ZNSt8ios_base4InitC1Ev(%"class.std::ios_base::Init"* nonnull align 1 dereferenceable(1) @_ZStL8__ioinit)
  %1 = tail call i32 @__cxa_atexit(void (i8*)* bitcast (void (%"class.std::ios_base::Init"*)* @_ZNSt8ios_base4InitD1Ev to void (i8*)*), i8* getelementptr inbounds (%"class.std::ios_base::Init", %"class.std::ios_base::Init"* @_ZStL8__ioinit, i64 0, i32 0), i8* nonnull @__dso_handle) #6
  ret void
}


!llvm.module.flags = !{!0, !1, !2, !3}
!llvm.ident = !{!4}

!0 = !{i32 1, !"wchar_size", i32 4}
!1 = !{i32 7, !"PIC Level", i32 2}
!2 = !{i32 7, !"PIE Level", i32 2}
!3 = !{i32 7, !"uwtable", i32 1}
!4 = !{!"clang version 13.0.0"}
!5 = !{!6, !6, i64 0}
!6 = !{!"int", !7, i64 0}
!7 = !{!"omnipotent char", !8, i64 0}
!8 = !{!"Simple C++ TBAA"}
!9 = distinct !{!9, !10}
!10 = !{!"llvm.loop.mustprogress"}
!11 = distinct !{!11, !10}
!12 = distinct !{!12, !13}
!13 = !{!"llvm.loop.unroll.disable"}
!14 = distinct !{!14, !10}
